target datalayout = "e-m:e-p270:32:32-p271:32:32-p272:64:64-i64:64-i128:128-f80:128-n8:16:32:64-S128"
target triple = "x86_64-unknown-linux-gnu"

%"class.qe::pred_abs" = type { ptr, %class.vector, %class.ref_vector, %class.svector, %class.obj_map, %class.obj_map.2, %class.obj_map.2, %class.obj_map, %class.ref_vector, %class.ref, %class.ptr_vector, %class.obj_map.7, %class.obj_map.12 }
%class.vector = type { ptr }
%class.svector = type { %class.vector.1 }
%class.vector.1 = type { ptr }
%class.obj_map.2 = type { %class.core_hashtable.3 }
%class.core_hashtable.3 = type <{ ptr, i32, i32, i32, [4 x i8] }>
%class.obj_map = type { %class.core_hashtable }
%class.core_hashtable = type <{ ptr, i32, i32, i32, [4 x i8] }>
%class.ref_vector = type { %class.ref_vector_core }
%class.ref_vector_core = type { %class.ref_manager_wrapper, %class.ptr_vector }
%class.ref_manager_wrapper = type { ptr }
%class.ref = type { ptr }
%class.ptr_vector = type { %class.vector.0 }
%class.vector.0 = type { ptr }
%class.obj_map.7 = type { %class.core_hashtable.8 }
%class.core_hashtable.8 = type <{ ptr, i32, i32, i32, [4 x i8] }>
%class.obj_map.12 = type { %class.core_hashtable.13 }
%class.core_hashtable.13 = type <{ ptr, i32, i32, i32, [4 x i8] }>
%class.ref_vector.50 = type { %class.ref_vector_core.51 }
%class.ref_vector_core.51 = type { %class.ref_manager_wrapper.52, %class.ptr_vector.53 }
%class.ref_manager_wrapper.52 = type { ptr }
%class.ptr_vector.53 = type { %class.vector.54 }
%class.vector.54 = type { ptr }
%class.params_ref = type { ptr }
%class.obj_ref = type { ptr, ptr }
%"class.qe::qsat" = type { %class.tactic.base, ptr, %class.params_ref, %"struct.qe::qsat::stats", %class.statistics, %"class.qe::mbproj", %"class.qe::kernel", %"class.qe::kernel", %"class.qe::pred_abs", %class.ref_vector, %class.ref_vector, %class.vector, i32, %class.ref.82, i32, %class.ref_vector.50, %class.ref_vector.50, ptr, ptr, i8, %class.ref.82, %class.obj_ref, %class.inf_eps_rational }
%class.tactic.base = type <{ %"class.user_propagator::core", i32 }>
%"class.user_propagator::core" = type { ptr }
%"struct.qe::qsat::stats" = type { i32 }
%class.statistics = type { %class.svector.77, %class.svector.79 }
%class.svector.77 = type { %class.vector.78 }
%class.vector.78 = type { ptr }
%class.svector.79 = type { %class.vector.80 }
%class.vector.80 = type { ptr }
%"class.qe::mbproj" = type { ptr }
%"class.qe::kernel" = type { ptr, %class.params_ref, %class.ref.81, %class.obj_ref }
%class.ref.81 = type { ptr }
%class.ref.82 = type { ptr }
%class.inf_eps_rational = type { %class.rational, %class.inf_rational }
%class.rational = type { %class.mpq }
%class.mpq = type { %class.mpz, %class.mpz }
%class.mpz = type { i32, i8, ptr }
%class.inf_rational = type { %class.rational, %class.rational }

; Function Attrs: mustprogress nounwind uwtable
define linkonce_odr hidden noundef nonnull align 8 dereferenceable(976) ptr @_ZNK10ref_vectorI4expr11ast_managerE11get_managerEv(ptr noundef nonnull align 8 dereferenceable(16) %this) #5 comdat align 2 {
entry:
  %this.addr = alloca ptr, align 8
  store ptr %this, ptr %this.addr, align 8
  %this1 = load ptr, ptr %this.addr, align 8
  %m_manager = getelementptr inbounds %class.ref_manager_wrapper, ptr %this1, i32 0, i32 0
  %0 = load ptr, ptr %m_manager, align 8
  ret ptr %0
}

; Function Attrs: mustprogress uwtable
define hidden noundef i32 @_ZN2qe8maximizeERK10ref_vectorI4expr11ast_managerEP3appR16inf_eps_rationalI12inf_rationalER3refI5modelERK10params_ref(ptr noundef nonnull align 8 dereferenceable(16) %fmls, ptr noundef %t, ptr noundef nonnull align 8 dereferenceable(96) %value, ptr noundef nonnull align 8 dereferenceable(8) %mdl, ptr noundef nonnull align 8 dereferenceable(8) %p) #4 personality ptr @__gxx_personality_v0 {
entry:
  %fmls.addr = alloca ptr, align 8
  %t.addr = alloca ptr, align 8
  %value.addr = alloca ptr, align 8
  %mdl.addr = alloca ptr, align 8
  %p.addr = alloca ptr, align 8
  %m = alloca ptr, align 8
  %qs = alloca %"class.qe::qsat", align 8
  %exn.slot = alloca ptr, align 8
  %ehselector.slot = alloca i32, align 4
  store ptr %fmls, ptr %fmls.addr, align 8
  store ptr %t, ptr %t.addr, align 8
  store ptr %value, ptr %value.addr, align 8
  store ptr %mdl, ptr %mdl.addr, align 8
  store ptr %p, ptr %p.addr, align 8
  %0 = load ptr, ptr %fmls.addr, align 8
  %call = call noundef nonnull align 8 dereferenceable(976) ptr @_ZNK10ref_vectorI4expr11ast_managerE11get_managerEv(ptr noundef nonnull align 8 dereferenceable(16) %0)
  store ptr %call, ptr %m, align 8
  %1 = load ptr, ptr %m, align 8
  %2 = load ptr, ptr %p.addr, align 8
  call void @_ZN2qe4qsatC2ER11ast_managerRK10params_refNS_9qsat_modeE(ptr noundef nonnull align 8 dereferenceable(600) %qs, ptr noundef nonnull align 8 dereferenceable(976) %1, ptr noundef nonnull align 8 dereferenceable(8) %2, i32 noundef 3)
  %3 = load ptr, ptr %fmls.addr, align 8
  %4 = load ptr, ptr %t.addr, align 8
  %5 = load ptr, ptr %mdl.addr, align 8
  %6 = load ptr, ptr %value.addr, align 8
  %call1 = invoke noundef i32 @_ZN2qe4qsat8maximizeERK10ref_vectorI4expr11ast_managerEP3appR3refI5modelER16inf_eps_rationalI12inf_rationalE(ptr noundef nonnull align 8 dereferenceable(600) %qs, ptr noundef nonnull align 8 dereferenceable(16) %3, ptr noundef %4, ptr noundef nonnull align 8 dereferenceable(8) %5, ptr noundef nonnull align 8 dereferenceable(96) %6)
          to label %invoke.cont unwind label %lpad

invoke.cont:                                      ; preds = %entry
  call void @_ZN2qe4qsatD2Ev(ptr noundef nonnull align 8 dereferenceable(600) %qs) #3
  ret i32 %call1

lpad:                                             ; preds = %entry
  %7 = landingpad { ptr, i32 }
          cleanup
  %8 = extractvalue { ptr, i32 } %7, 0
  store ptr %8, ptr %exn.slot, align 8
  %9 = extractvalue { ptr, i32 } %7, 1
  store i32 %9, ptr %ehselector.slot, align 4
  call void @_ZN2qe4qsatD2Ev(ptr noundef nonnull align 8 dereferenceable(600) %qs) #3
  br label %eh.resume

eh.resume:                                        ; preds = %lpad
  %exn = load ptr, ptr %exn.slot, align 8
  %sel = load i32, ptr %ehselector.slot, align 4
  %lpad.val = insertvalue { ptr, i32 } poison, ptr %exn, 0
  %lpad.val2 = insertvalue { ptr, i32 } %lpad.val, i32 %sel, 1
  resume { ptr, i32 } %lpad.val2
}