; Function Attrs: mustprogress uwtable
define hidden noundef i32 @_ZN2qe8maximizeERK10ref_vectorI4expr11ast_managerEP3appR16inf_eps_rationalI12inf_rationalER3refI5modelERK10params_ref(ptr noundef nonnull align 8 dereferenceable(16) %fmls, ptr noundef %t, ptr noundef nonnull align 8 dereferenceable(96) %value, ptr noundef nonnull align 8 dereferenceable(8) %mdl, ptr noundef nonnull align 8 dereferenceable(8) %p) local_unnamed_addr #3 personality ptr @__gxx_personality_v0 {
entry:
  %qs = alloca %"class.qe::qsat", align 8
  %0 = load ptr, ptr %fmls, align 8
  call void @_ZN2qe4qsatC2ER11ast_managerRK10params_refNS_9qsat_modeE(ptr noundef nonnull align 8 dereferenceable(600) %qs, ptr noundef nonnull align 8 dereferenceable(976) %0, ptr noundef nonnull align 8 dereferenceable(8) %p, i32 noundef 3)
  %call1 = invoke noundef i32 @_ZN2qe4qsat8maximizeERK10ref_vectorI4expr11ast_managerEP3appR3refI5modelER16inf_eps_rationalI12inf_rationalE(ptr noundef nonnull align 8 dereferenceable(600) %qs, ptr noundef nonnull align 8 dereferenceable(16) %fmls, ptr noundef %t, ptr noundef nonnull align 8 dereferenceable(8) %mdl, ptr noundef nonnull align 8 dereferenceable(96) %value)
          to label %invoke.cont unwind label %lpad

invoke.cont:                                      ; preds = %entry
  call void @_ZN2qe4qsatD2Ev(ptr noundef nonnull align 8 dereferenceable(600) %qs) #19
  ret i32 %call1

lpad:                                             ; preds = %entry
  %1 = landingpad { ptr, i32 }
          cleanup
  call void @_ZN2qe4qsatD2Ev(ptr noundef nonnull align 8 dereferenceable(600) %qs) #19
  resume { ptr, i32 } %1
}